; ModuleID = '38/935.c'
source_filename = "38/935.c"
target datalayout = "e-m:e-p270:32:32-p271:32:32-p272:64:64-i64:64-f80:128-n8:16:32:64-S128"
target triple = "x86_64-pc-linux-gnu"

@.str = private unnamed_addr constant [3 x i8] c"%d\00", align 1
@.str.1 = private unnamed_addr constant [4 x i8] c"%lf\00", align 1
@.str.2 = private unnamed_addr constant [6 x i8] c"%.5f\0A\00", align 1

; Function Attrs: noinline nounwind uwtable
define dso_local i32 @main() #0 {
  %1 = alloca i32, align 4
  %2 = alloca i32, align 4
  %3 = alloca i32, align 4
  %4 = alloca i32, align 4
  %5 = alloca i32, align 4
  %6 = alloca i32, align 4
  %7 = alloca i32, align 4
  %8 = alloca i32, align 4
  %9 = alloca [100 x double*], align 16
  %10 = alloca [100 x double*], align 16
  %11 = alloca double, align 8
  %12 = alloca double, align 8
  %13 = alloca double, align 8
  %14 = alloca double, align 8
  store i32 0, i32* %1, align 4
  store double 0.000000e+00, double* %12, align 8
  store double 0.000000e+00, double* %13, align 8
  %15 = call i32 (i8*, ...) @__isoc99_scanf(i8* getelementptr inbounds ([3 x i8], [3 x i8]* @.str, i64 0, i64 0), i32* %2)
  store i32 0, i32* %4, align 4
  br label %16

16:                                               ; preds = %101, %0
  %17 = load i32, i32* %4, align 4
  %18 = load i32, i32* %2, align 4
  %19 = icmp slt i32 %17, %18
  br i1 %19, label %20, label %104

20:                                               ; preds = %16
  %21 = call i32 (i8*, ...) @__isoc99_scanf(i8* getelementptr inbounds ([3 x i8], [3 x i8]* @.str, i64 0, i64 0), i32* %3)
  %22 = call noalias i8* @malloc(i64 800) #3
  %23 = bitcast i8* %22 to double*
  %24 = load i32, i32* %4, align 4
  %25 = sext i32 %24 to i64
  %26 = getelementptr inbounds [100 x double*], [100 x double*]* %9, i64 0, i64 %25
  store double* %23, double** %26, align 8
  store double 0.000000e+00, double* %12, align 8
  store i32 0, i32* %5, align 4
  br label %27

27:                                               ; preds = %46, %20
  %28 = load i32, i32* %5, align 4
  %29 = load i32, i32* %3, align 4
  %30 = icmp slt i32 %28, %29
  br i1 %30, label %31, label %49

31:                                               ; preds = %27
  %32 = load i32, i32* %4, align 4
  %33 = sext i32 %32 to i64
  %34 = getelementptr inbounds [100 x double*], [100 x double*]* %9, i64 0, i64 %33
  %35 = load double*, double** %34, align 8
  %36 = getelementptr inbounds double, double* %35, i32 1
  store double* %36, double** %34, align 8
  %37 = call i32 (i8*, ...) @__isoc99_scanf(i8* getelementptr inbounds ([4 x i8], [4 x i8]* @.str.1, i64 0, i64 0), double* %35)
  %38 = load double, double* %12, align 8
  %39 = load i32, i32* %4, align 4
  %40 = sext i32 %39 to i64
  %41 = getelementptr inbounds [100 x double*], [100 x double*]* %9, i64 0, i64 %40
  %42 = load double*, double** %41, align 8
  %43 = getelementptr inbounds double, double* %42, i64 -1
  %44 = load double, double* %43, align 8
  %45 = fadd double %38, %44
  store double %45, double* %12, align 8
  br label %46

46:                                               ; preds = %31
  %47 = load i32, i32* %5, align 4
  %48 = add nsw i32 %47, 1
  store i32 %48, i32* %5, align 4
  br label %27

49:                                               ; preds = %27
  %50 = load double, double* %12, align 8
  %51 = load i32, i32* %3, align 4
  %52 = sitofp i32 %51 to double
  %53 = fdiv double %50, %52
  store double %53, double* %11, align 8
  %54 = load i32, i32* %4, align 4
  %55 = sext i32 %54 to i64
  %56 = getelementptr inbounds [100 x double*], [100 x double*]* %9, i64 0, i64 %55
  %57 = load double*, double** %56, align 8
  %58 = load i32, i32* %3, align 4
  %59 = sext i32 %58 to i64
  %60 = sub i64 0, %59
  %61 = getelementptr inbounds double, double* %57, i64 %60
  %62 = load i32, i32* %4, align 4
  %63 = sext i32 %62 to i64
  %64 = getelementptr inbounds [100 x double*], [100 x double*]* %9, i64 0, i64 %63
  store double* %61, double** %64, align 8
  store double 0.000000e+00, double* %13, align 8
  store i32 0, i32* %8, align 4
  br label %65

65:                                               ; preds = %83, %49
  %66 = load i32, i32* %8, align 4
  %67 = load i32, i32* %3, align 4
  %68 = icmp slt i32 %66, %67
  br i1 %68, label %69, label %86

69:                                               ; preds = %65
  %70 = load double, double* %13, align 8
  %71 = load i32, i32* %4, align 4
  %72 = sext i32 %71 to i64
  %73 = getelementptr inbounds [100 x double*], [100 x double*]* %9, i64 0, i64 %72
  %74 = load double*, double** %73, align 8
  %75 = load i32, i32* %8, align 4
  %76 = sext i32 %75 to i64
  %77 = getelementptr inbounds double, double* %74, i64 %76
  %78 = load double, double* %77, align 8
  %79 = load double, double* %11, align 8
  %80 = fsub double %78, %79
  %81 = call double @pow(double %80, double 2.000000e+00) #3
  %82 = fadd double %70, %81
  store double %82, double* %13, align 8
  br label %83

83:                                               ; preds = %69
  %84 = load i32, i32* %8, align 4
  %85 = add nsw i32 %84, 1
  store i32 %85, i32* %8, align 4
  br label %65

86:                                               ; preds = %65
  %87 = call noalias i8* @malloc(i64 8) #3
  %88 = bitcast i8* %87 to double*
  %89 = load i32, i32* %4, align 4
  %90 = sext i32 %89 to i64
  %91 = getelementptr inbounds [100 x double*], [100 x double*]* %10, i64 0, i64 %90
  store double* %88, double** %91, align 8
  %92 = load double, double* %13, align 8
  %93 = load i32, i32* %3, align 4
  %94 = sitofp i32 %93 to double
  %95 = fdiv double %92, %94
  %96 = call double @sqrt(double %95) #3
  %97 = load i32, i32* %4, align 4
  %98 = sext i32 %97 to i64
  %99 = getelementptr inbounds [100 x double*], [100 x double*]* %10, i64 0, i64 %98
  %100 = load double*, double** %99, align 8
  store double %96, double* %100, align 8
  br label %101

101:                                              ; preds = %86
  %102 = load i32, i32* %4, align 4
  %103 = add nsw i32 %102, 1
  store i32 %103, i32* %4, align 4
  br label %16

104:                                              ; preds = %16
  store i32 0, i32* %4, align 4
  br label %105

105:                                              ; preds = %116, %104
  %106 = load i32, i32* %4, align 4
  %107 = load i32, i32* %2, align 4
  %108 = icmp slt i32 %106, %107
  br i1 %108, label %109, label %119

109:                                              ; preds = %105
  %110 = load i32, i32* %4, align 4
  %111 = sext i32 %110 to i64
  %112 = getelementptr inbounds [100 x double*], [100 x double*]* %10, i64 0, i64 %111
  %113 = load double*, double** %112, align 8
  %114 = load double, double* %113, align 8
  %115 = call i32 (i8*, ...) @printf(i8* getelementptr inbounds ([6 x i8], [6 x i8]* @.str.2, i64 0, i64 0), double %114)
  br label %116

116:                                              ; preds = %109
  %117 = load i32, i32* %4, align 4
  %118 = add nsw i32 %117, 1
  store i32 %118, i32* %4, align 4
  br label %105

119:                                              ; preds = %105
  %120 = load i32, i32* %1, align 4
  ret i32 %120
}

declare dso_local i32 @__isoc99_scanf(i8*, ...) #1

; Function Attrs: nounwind
declare dso_local noalias i8* @malloc(i64) #2

; Function Attrs: nounwind
declare dso_local double @pow(double, double) #2

; Function Attrs: nounwind
declare dso_local double @sqrt(double) #2

declare dso_local i32 @printf(i8*, ...) #1


!llvm.module.flags = !{!0}
!llvm.ident = !{!1}

!0 = !{i32 1, !"wchar_size", i32 4}
!1 = !{!"clang version 10.0.0-4ubuntu1 "}
